target datalayout = "e-m:e-p270:32:32-p271:32:32-p272:64:64-i64:64-i128:128-f80:128-n8:16:32:64-S128"
target triple = "x86_64-pc-linux-gnu"

%struct.Subscription = type { i32, i32, i64, ptr, i32, i8, i8, i8, i8, i8, i8, i8, i8, i8, ptr, ptr, ptr, ptr, ptr }

@.str.2 = private unnamed_addr constant [22 x i8] c"applyparallelworker.c\00", align 1
@MySubscription = external global ptr, align 8
@subxactlist = internal global ptr null, align 8
@.str.9 = private unnamed_addr constant [67 x i8] c"defining savepoint %s in logical replication parallel apply worker\00", align 1
@__func__.pa_start_subtrans = private unnamed_addr constant [18 x i8] c"pa_start_subtrans\00", align 1
@TopTransactionContext = external global ptr, align 8
@CurrentMemoryContext = external global ptr, align 8
@.str.22 = private unnamed_addr constant [12 x i8] c"pg_sp_%u_%u\00", align 1

; Function Attrs: inlinehint nounwind uwtable
define internal ptr @MemoryContextSwitchTo(ptr noundef %0) #5 {
  %2 = alloca ptr, align 8
  %3 = alloca ptr, align 8
  store ptr %0, ptr %2, align 8
  call void @llvm.lifetime.start.p0(i64 8, ptr %3) #9
  %4 = load ptr, ptr @CurrentMemoryContext, align 8
  store ptr %4, ptr %3, align 8
  %5 = load ptr, ptr %2, align 8
  store ptr %5, ptr @CurrentMemoryContext, align 8
  %6 = load ptr, ptr %3, align 8
  call void @llvm.lifetime.end.p0(i64 8, ptr %3) #9
  ret ptr %6
}

; Function Attrs: nounwind uwtable
define internal void @pa_savepoint_name(i32 noundef %0, i32 noundef %1, ptr noundef %2, i64 noundef %3) #0 {
  %5 = alloca i32, align 4
  %6 = alloca i32, align 4
  %7 = alloca ptr, align 8
  %8 = alloca i64, align 8
  store i32 %0, ptr %5, align 4
  store i32 %1, ptr %6, align 4
  store ptr %2, ptr %7, align 8
  store i64 %3, ptr %8, align 8
  %9 = load ptr, ptr %7, align 8
  %10 = load i64, ptr %8, align 8
  %11 = load i32, ptr %5, align 4
  %12 = load i32, ptr %6, align 4
  %13 = call i32 (ptr, i64, ptr, ...) @pg_snprintf(ptr noundef %9, i64 noundef %10, ptr noundef @.str.22, i32 noundef %11, i32 noundef %12)
  ret void
}

; Function Attrs: nounwind uwtable
define dso_local void @pa_start_subtrans(i32 noundef %0, i32 noundef %1) #0 {
  %3 = alloca i32, align 4
  %4 = alloca i32, align 4
  %5 = alloca ptr, align 8
  %6 = alloca [64 x i8], align 16
  store i32 %0, ptr %3, align 4
  store i32 %1, ptr %4, align 4
  %7 = load i32, ptr %3, align 4
  %8 = load i32, ptr %4, align 4
  %9 = icmp ne i32 %7, %8
  br i1 %9, label %10, label %45

10:                                               ; preds = %2
  %11 = load ptr, ptr @subxactlist, align 8
  %12 = load i32, ptr %3, align 4
  %13 = call zeroext i1 @list_member_xid(ptr noundef %11, i32 noundef %12)
  br i1 %13, label %45, label %14

14:                                               ; preds = %10
  call void @llvm.lifetime.start.p0(i64 8, ptr %5) #9
  call void @llvm.lifetime.start.p0(i64 64, ptr %6) #9
  %15 = load ptr, ptr @MySubscription, align 8
  %16 = getelementptr inbounds nuw %struct.Subscription, ptr %15, i32 0, i32 0
  %17 = load i32, ptr %16, align 8
  %18 = load i32, ptr %3, align 4
  %19 = getelementptr inbounds [64 x i8], ptr %6, i64 0, i64 0
  call void @pa_savepoint_name(i32 noundef %17, i32 noundef %18, ptr noundef %19, i64 noundef 64)
  br label %20

20:                                               ; preds = %14
  br i1 false, label %21, label %23

21:                                               ; preds = %20
  %22 = call zeroext i1 @errstart_cold(i32 noundef 14, ptr noundef null) #10
  br i1 %22, label %25, label %28

23:                                               ; preds = %20
  %24 = call zeroext i1 @errstart(i32 noundef 14, ptr noundef null)
  br i1 %24, label %25, label %28

25:                                               ; preds = %23, %21
  %26 = getelementptr inbounds [64 x i8], ptr %6, i64 0, i64 0
  %27 = call i32 (ptr, ...) @errmsg_internal(ptr noundef @.str.9, ptr noundef %26)
  call void @errfinish(ptr noundef @.str.2, i32 noundef 1373, ptr noundef @__func__.pa_start_subtrans)
  br label %28

28:                                               ; preds = %25, %23, %21
  br label %29

29:                                               ; preds = %28
  br label %30

30:                                               ; preds = %29
  %31 = call zeroext i1 @IsTransactionBlock()
  br i1 %31, label %36, label %32

32:                                               ; preds = %30
  %33 = call zeroext i1 @IsTransactionState()
  br i1 %33, label %35, label %34

34:                                               ; preds = %32
  call void @StartTransactionCommand()
  br label %35

35:                                               ; preds = %34, %32
  call void @BeginTransactionBlock()
  call void @CommitTransactionCommand()
  br label %36

36:                                               ; preds = %35, %30
  %37 = getelementptr inbounds [64 x i8], ptr %6, i64 0, i64 0
  call void @DefineSavepoint(ptr noundef %37)
  call void @CommitTransactionCommand()
  %38 = load ptr, ptr @TopTransactionContext, align 8
  %39 = call ptr @MemoryContextSwitchTo(ptr noundef %38)
  store ptr %39, ptr %5, align 8
  %40 = load ptr, ptr @subxactlist, align 8
  %41 = load i32, ptr %3, align 4
  %42 = call ptr @lappend_xid(ptr noundef %40, i32 noundef %41)
  store ptr %42, ptr @subxactlist, align 8
  %43 = load ptr, ptr %5, align 8
  %44 = call ptr @MemoryContextSwitchTo(ptr noundef %43)
  call void @llvm.lifetime.end.p0(i64 64, ptr %6) #9
  call void @llvm.lifetime.end.p0(i64 8, ptr %5) #9
  br label %45

45:                                               ; preds = %36, %10, %2
  ret void
}