; Function Attrs: nounwind uwtable
define dso_local void @pa_start_subtrans(i32 noundef %0, i32 noundef %1) local_unnamed_addr #0 {
  %3 = alloca [64 x i8], align 16
  %.not = icmp eq i32 %0, %1
  br i1 %.not, label %25, label %4

4:                                                ; preds = %2
  %5 = load ptr, ptr @subxactlist, align 8
  %6 = tail call zeroext i1 @list_member_xid(ptr noundef %5, i32 noundef %0) #10
  br i1 %6, label %25, label %7

7:                                                ; preds = %4
  call void @llvm.lifetime.start.p0(i64 64, ptr nonnull %3) #10
  %8 = load ptr, ptr @MySubscription, align 8
  %9 = load i32, ptr %8, align 8
  %10 = call i32 (ptr, i64, ptr, ...) @pg_snprintf(ptr noundef nonnull %3, i64 noundef 64, ptr noundef nonnull @.str.22, i32 noundef %9, i32 noundef %0) #10
  %11 = call zeroext i1 @errstart(i32 noundef 14, ptr noundef null) #10
  br i1 %11, label %12, label %14

12:                                               ; preds = %7
  %13 = call i32 (ptr, ...) @errmsg_internal(ptr noundef nonnull @.str.9, ptr noundef nonnull %3) #10
  call void @errfinish(ptr noundef nonnull @.str.2, i32 noundef 1373, ptr noundef nonnull @__func__.pa_start_subtrans) #10
  br label %14

14:                                               ; preds = %12, %7
  %15 = call zeroext i1 @IsTransactionBlock() #10
  br i1 %15, label %20, label %16

16:                                               ; preds = %14
  %17 = call zeroext i1 @IsTransactionState() #10
  br i1 %17, label %19, label %18

18:                                               ; preds = %16
  call void @StartTransactionCommand() #10
  br label %19

19:                                               ; preds = %18, %16
  call void @BeginTransactionBlock() #10
  call void @CommitTransactionCommand() #10
  br label %20

20:                                               ; preds = %19, %14
  call void @DefineSavepoint(ptr noundef nonnull %3) #10
  call void @CommitTransactionCommand() #10
  %21 = load ptr, ptr @TopTransactionContext, align 8
  %22 = load ptr, ptr @CurrentMemoryContext, align 8
  store ptr %21, ptr @CurrentMemoryContext, align 8
  %23 = load ptr, ptr @subxactlist, align 8
  %24 = call ptr @lappend_xid(ptr noundef %23, i32 noundef %0) #10
  store ptr %24, ptr @subxactlist, align 8
  store ptr %22, ptr @CurrentMemoryContext, align 8
  call void @llvm.lifetime.end.p0(i64 64, ptr nonnull %3) #10
  br label %25

25:                                               ; preds = %20, %4, %2
  ret void
}